target datalayout = "e-m:e-p270:32:32-p271:32:32-p272:64:64-i64:64-i128:128-f80:128-n8:16:32:64-S128"
target triple = "x86_64-pc-linux-gnu"

%struct._dcerpc_info = type { ptr, i32, i64, i8, i8, i8, i32, i32, i32, i32, i32, i32, i32, i32, ptr, ptr, ptr, ptr, %struct.anon }
%struct.anon = type { i8, ptr, ptr, ptr, i8 }

; Function Attrs: alwaysinline nounwind
define internal ptr @memset.inline(ptr %0, i32 %1, i64 %2) #6 {
  %4 = alloca ptr, align 8
  %5 = alloca i32, align 4
  %6 = alloca i64, align 8
  store ptr %0, ptr %4, align 8
  store i32 %1, ptr %5, align 4
  store i64 %2, ptr %6, align 8
  %7 = load ptr, ptr %4, align 8
  %8 = load i32, ptr %5, align 4
  %9 = load i64, ptr %6, align 8
  %10 = load ptr, ptr %4, align 8
  %11 = call i64 @llvm.objectsize.i64.p0(ptr %10, i1 false, i1 true, i1 true)
  %12 = call ptr @__memset_chk(ptr noundef %7, i32 noundef %8, i64 noundef %9, i64 noundef %11) #9
  ret ptr %12
}

; Function Attrs: null_pointer_is_valid sspstrong uwtable
define i32 @dissect_ndr_uuid_t(ptr noundef %0, i32 noundef %1, ptr noundef %2, ptr noundef %3, ptr noundef %4, ptr noundef %5, i32 noundef %6, ptr noundef %7) #0 {
  %9 = alloca i32, align 4
  %10 = alloca ptr, align 8
  %11 = alloca i32, align 4
  %12 = alloca ptr, align 8
  %13 = alloca ptr, align 8
  %14 = alloca ptr, align 8
  %15 = alloca ptr, align 8
  %16 = alloca i32, align 4
  %17 = alloca ptr, align 8
  store ptr %0, ptr %10, align 8
  store i32 %1, ptr %11, align 4
  store ptr %2, ptr %12, align 8
  store ptr %3, ptr %13, align 8
  store ptr %4, ptr %14, align 8
  store ptr %5, ptr %15, align 8
  store i32 %6, ptr %16, align 4
  store ptr %7, ptr %17, align 8
  %18 = load ptr, ptr %17, align 8
  %19 = icmp ne ptr %18, null
  br i1 %19, label %20, label %23

20:                                               ; preds = %8
  %21 = load ptr, ptr %17, align 8
  %22 = call ptr @memset.inline(ptr noundef %21, i32 noundef 0, i64 noundef 16) #9
  br label %23

23:                                               ; preds = %20, %8
  %24 = load ptr, ptr %14, align 8
  %25 = getelementptr inbounds nuw %struct._dcerpc_info, ptr %24, i32 0, i32 4
  %26 = load i8, ptr %25, align 1, !range !6, !noundef !7
  %27 = trunc i8 %26 to i1
  br i1 %27, label %28, label %30

28:                                               ; preds = %23
  %29 = load i32, ptr %11, align 4
  store i32 %29, ptr %9, align 4
  br label %54

30:                                               ; preds = %23
  %31 = load ptr, ptr %14, align 8
  %32 = getelementptr inbounds nuw %struct._dcerpc_info, ptr %31, i32 0, i32 5
  %33 = load i8, ptr %32, align 2, !range !6, !noundef !7
  %34 = trunc i8 %33 to i1
  br i1 %34, label %45, label %35

35:                                               ; preds = %30
  %36 = load i32, ptr %11, align 4
  %37 = srem i32 %36, 4
  %38 = icmp ne i32 %37, 0
  br i1 %38, label %39, label %45

39:                                               ; preds = %35
  %40 = load i32, ptr %11, align 4
  %41 = srem i32 %40, 4
  %42 = sub i32 4, %41
  %43 = load i32, ptr %11, align 4
  %44 = add i32 %43, %42
  store i32 %44, ptr %11, align 4
  br label %45

45:                                               ; preds = %39, %35, %30
  %46 = load ptr, ptr %10, align 8
  %47 = load i32, ptr %11, align 4
  %48 = load ptr, ptr %12, align 8
  %49 = load ptr, ptr %13, align 8
  %50 = load ptr, ptr %15, align 8
  %51 = load i32, ptr %16, align 4
  %52 = load ptr, ptr %17, align 8
  %53 = call i32 @dissect_dcerpc_uuid_t(ptr noundef %46, i32 noundef %47, ptr noundef %48, ptr noundef %49, ptr noundef %50, i32 noundef %51, ptr noundef %52)
  store i32 %53, ptr %9, align 4
  br label %54

54:                                               ; preds = %45, %28
  %55 = load i32, ptr %9, align 4
  ret i32 %55
}