; Function Attrs: null_pointer_is_valid sspstrong uwtable
define i32 @dissect_ndr_uuid_t(ptr noundef %0, i32 noundef %1, ptr noundef %2, ptr noundef %3, ptr noundef readonly captures(none) %4, ptr noundef %5, i32 noundef %6, ptr noundef %7) local_unnamed_addr #0 {
  %.not = icmp eq ptr %7, null
  br i1 %.not, label %10, label %9

9:                                                ; preds = %8
  tail call void @llvm.memset.p0.i64(ptr noundef nonnull align 1 dereferenceable(16) %7, i8 noundef 0, i64 noundef 16, i1 noundef false) #8
  br label %10

10:                                               ; preds = %9, %8
  %11 = getelementptr inbounds nuw i8, ptr %4, i64 25
  %12 = load i8, ptr %11, align 1, !range !6, !noundef !7
  %13 = trunc nuw i8 %12 to i1
  br i1 %13, label %24, label %14

14:                                               ; preds = %10
  %15 = getelementptr inbounds nuw i8, ptr %4, i64 26
  %16 = load i8, ptr %15, align 2, !range !6, !noundef !7
  %17 = trunc nuw i8 %16 to i1
  br i1 %17, label %22, label %18

18:                                               ; preds = %14
  %19 = srem i32 %1, 4
  %.not18 = icmp eq i32 %19, 0
  br i1 %.not18, label %22, label %20

20:                                               ; preds = %18
  %reass.sub = add i32 %1, 4
  %21 = sub i32 %reass.sub, %19
  br label %22

22:                                               ; preds = %20, %18, %14
  %.015 = phi i32 [ %1, %14 ], [ %21, %20 ], [ %1, %18 ]
  %23 = tail call i32 @dissect_dcerpc_uuid_t(ptr noundef %0, i32 noundef %.015, ptr noundef %2, ptr noundef %3, ptr noundef %5, i32 noundef %6, ptr noundef %7)
  br label %24

24:                                               ; preds = %10, %22
  %.0 = phi i32 [ %23, %22 ], [ %1, %10 ]
  ret i32 %.0
}